; Function Attrs: nounwind uwtable
define void @Acec_TreeFilterTrees(ptr noundef readonly captures(none) %0, ptr noundef readonly captures(none) %1, ptr noundef readonly captures(none) %2) local_unnamed_addr #0 {
  %4 = getelementptr i8, ptr %2, i64 4
  %.val8 = load i32, ptr %4, align 4
  %5 = icmp sgt i32 %.val8, 0
  br i1 %5, label %.lr.ph, label %.critedge

.lr.ph:                                           ; preds = %3
  %6 = getelementptr i8, ptr %2, i64 8
  br label %7

7:                                                ; preds = %.lr.ph, %7
  %indvars.iv = phi i64 [ 0, %.lr.ph ], [ %indvars.iv.next, %7 ]
  %.val7 = load ptr, ptr %6, align 8
  %8 = getelementptr inbounds nuw %struct.Vec_Int_t_, ptr %.val7, i64 %indvars.iv
  tail call void @Acec_TreeFilterOne(ptr noundef %0, ptr noundef %1, ptr noundef %8)
  %indvars.iv.next = add nuw nsw i64 %indvars.iv, 1
  %.val = load i32, ptr %4, align 4
  %9 = sext i32 %.val to i64
  %10 = icmp slt i64 %indvars.iv.next, %9
  br i1 %10, label %7, label %.critedge, !llvm.loop !12

.critedge:                                        ; preds = %7, %3
  ret void
}